target datalayout = "e-m:e-p270:32:32-p271:32:32-p272:64:64-i64:64-i128:128-f80:128-n8:16:32:64-S128"
target triple = "x86_64-pc-linux-gnu"

%struct.expert_field = type { i32, i32 }
%struct._packet_info = type { ptr, ptr, i32, i32, %struct.nstime_t, %struct.nstime_t, %struct.nstime_t, i8, ptr, ptr, ptr, ptr, %struct._address, %struct._address, %struct._address, %struct._address, %struct._address, %struct._address, i32, ptr, i8, [3 x i8], %struct.anon, i32, i32, i32, i32, ptr, i8, ptr, ptr, i16, i16, i32, i32, i16, i32, i32, ptr, ptr, ptr, i8, i8, i16, i16, i16, i32, i16, i16, ptr, ptr, ptr, ptr, ptr, i32, i32 }
%struct.nstime_t = type { i64, i32 }
%struct._address = type { i32, i32, ptr, ptr }
%struct.anon = type { i8, [3 x i8] }
%struct.rlc_nr_info = type { i8, i8, i8, i8, i8, i16, i16 }

@ett_rlc_nr = internal global i32 0, align 4
@ei_rlc_nr_unknown_udp_framing_tag = internal global %struct.expert_field zeroinitializer, align 4
@.str.153 = private unnamed_addr constant [7 x i8] c"RLC-NR\00", align 1
@.str.154 = private unnamed_addr constant [7 x i8] c"rlc-nr\00", align 1
@proto_rlc_nr = hidden global i32 0, align 4

; Function Attrs: null_pointer_is_valid sspstrong uwtable
define internal zeroext i1 @dissect_rlc_nr_heur(ptr noundef %0, ptr noundef %1, ptr noundef %2, ptr noundef %3) #0 {
  %5 = alloca i1, align 1
  %6 = alloca ptr, align 8
  %7 = alloca ptr, align 8
  %8 = alloca ptr, align 8
  %9 = alloca ptr, align 8
  %10 = alloca i32, align 4
  %11 = alloca ptr, align 8
  %12 = alloca ptr, align 8
  %13 = alloca i8, align 1
  %14 = alloca i32, align 4
  %15 = alloca ptr, align 8
  %16 = alloca ptr, align 8
  store ptr %0, ptr %6, align 8
  store ptr %1, ptr %7, align 8
  store ptr %2, ptr %8, align 8
  store ptr %3, ptr %9, align 8
  call void @llvm.lifetime.start.p0(i64 4, ptr %10) #12
  store i32 0, ptr %10, align 4
  call void @llvm.lifetime.start.p0(i64 8, ptr %11) #12
  call void @llvm.lifetime.start.p0(i64 8, ptr %12) #12
  call void @llvm.lifetime.start.p0(i64 1, ptr %13) #12
  %17 = load ptr, ptr %6, align 8
  %18 = load i32, ptr %10, align 4
  %19 = call i32 @tvb_captured_length_remaining(ptr noundef %17, i32 noundef %18)
  %20 = icmp slt i32 %19, 10
  br i1 %20, label %21, label %22

21:                                               ; preds = %4
  store i1 false, ptr %5, align 1
  store i32 1, ptr %14, align 4
  br label %148

22:                                               ; preds = %4
  %23 = load ptr, ptr %6, align 8
  %24 = load i32, ptr %10, align 4
  %25 = call i32 @tvb_strneql(ptr noundef %23, i32 noundef %24, ptr noundef @.str.154, i64 noundef 6)
  %26 = icmp ne i32 %25, 0
  br i1 %26, label %27, label %28

27:                                               ; preds = %22
  store i1 false, ptr %5, align 1
  store i32 1, ptr %14, align 4
  br label %148

28:                                               ; preds = %22
  %29 = load i32, ptr %10, align 4
  %30 = add i32 %29, 6
  store i32 %30, ptr %10, align 4
  %31 = call ptr @wmem_file_scope()
  %32 = load ptr, ptr %7, align 8
  %33 = load i32, ptr @proto_rlc_nr, align 4
  %34 = call ptr @p_get_proto_data(ptr noundef %31, ptr noundef %32, i32 noundef %33, i32 noundef 0)
  store ptr %34, ptr %11, align 8
  %35 = load ptr, ptr %11, align 8
  %36 = icmp eq ptr %35, null
  br i1 %36, label %37, label %133

37:                                               ; preds = %28
  %38 = call ptr @wmem_file_scope()
  %39 = call noalias ptr @wmem_alloc0(ptr noundef %38, i64 noundef 10) #13
  store ptr %39, ptr %11, align 8
  %40 = load ptr, ptr %6, align 8
  %41 = load i32, ptr %10, align 4
  %42 = add i32 %41, 1
  store i32 %42, ptr %10, align 4
  %43 = call zeroext i8 @tvb_get_uint8(ptr noundef %40, i32 noundef %41)
  %44 = load ptr, ptr %11, align 8
  %45 = getelementptr inbounds nuw %struct.rlc_nr_info, ptr %44, i32 0, i32 0
  store i8 %43, ptr %45, align 2
  %46 = load ptr, ptr %6, align 8
  %47 = load i32, ptr %10, align 4
  %48 = add i32 %47, 1
  store i32 %48, ptr %10, align 4
  %49 = call zeroext i8 @tvb_get_uint8(ptr noundef %46, i32 noundef %47)
  %50 = load ptr, ptr %11, align 8
  %51 = getelementptr inbounds nuw %struct.rlc_nr_info, ptr %50, i32 0, i32 2
  store i8 %49, ptr %51, align 2
  br label %52

52:                                               ; preds = %124, %37
  %53 = load ptr, ptr %6, align 8
  %54 = load i32, ptr %10, align 4
  %55 = add i32 %54, 1
  store i32 %55, ptr %10, align 4
  %56 = call zeroext i8 @tvb_get_uint8(ptr noundef %53, i32 noundef %54)
  store i8 %56, ptr %13, align 1
  %57 = load i8, ptr %13, align 1
  %58 = zext i8 %57 to i32
  switch i32 %58, label %98 [
    i32 2, label %59
    i32 3, label %67
    i32 4, label %75
    i32 5, label %83
    i32 1, label %91
  ]

59:                                               ; preds = %52
  %60 = load ptr, ptr %6, align 8
  %61 = load i32, ptr %10, align 4
  %62 = call zeroext i8 @tvb_get_uint8(ptr noundef %60, i32 noundef %61)
  %63 = load ptr, ptr %11, align 8
  %64 = getelementptr inbounds nuw %struct.rlc_nr_info, ptr %63, i32 0, i32 1
  store i8 %62, ptr %64, align 1
  %65 = load i32, ptr %10, align 4
  %66 = add i32 %65, 1
  store i32 %66, ptr %10, align 4
  br label %123

67:                                               ; preds = %52
  %68 = load ptr, ptr %6, align 8
  %69 = load i32, ptr %10, align 4
  %70 = call zeroext i16 @tvb_get_ntohs(ptr noundef %68, i32 noundef %69)
  %71 = load ptr, ptr %11, align 8
  %72 = getelementptr inbounds nuw %struct.rlc_nr_info, ptr %71, i32 0, i32 5
  store i16 %70, ptr %72, align 2
  %73 = load i32, ptr %10, align 4
  %74 = add i32 %73, 2
  store i32 %74, ptr %10, align 4
  br label %123

75:                                               ; preds = %52
  %76 = load ptr, ptr %6, align 8
  %77 = load i32, ptr %10, align 4
  %78 = call zeroext i8 @tvb_get_uint8(ptr noundef %76, i32 noundef %77)
  %79 = load ptr, ptr %11, align 8
  %80 = getelementptr inbounds nuw %struct.rlc_nr_info, ptr %79, i32 0, i32 3
  store i8 %78, ptr %80, align 1
  %81 = load i32, ptr %10, align 4
  %82 = add i32 %81, 1
  store i32 %82, ptr %10, align 4
  br label %123

83:                                               ; preds = %52
  %84 = load ptr, ptr %6, align 8
  %85 = load i32, ptr %10, align 4
  %86 = call zeroext i8 @tvb_get_uint8(ptr noundef %84, i32 noundef %85)
  %87 = load ptr, ptr %11, align 8
  %88 = getelementptr inbounds nuw %struct.rlc_nr_info, ptr %87, i32 0, i32 4
  store i8 %86, ptr %88, align 2
  %89 = load i32, ptr %10, align 4
  %90 = add i32 %89, 1
  store i32 %90, ptr %10, align 4
  br label %123

91:                                               ; preds = %52
  %92 = load ptr, ptr %6, align 8
  %93 = load i32, ptr %10, align 4
  %94 = call i32 @tvb_reported_length_remaining(ptr noundef %92, i32 noundef %93)
  %95 = trunc i32 %94 to i16
  %96 = load ptr, ptr %11, align 8
  %97 = getelementptr inbounds nuw %struct.rlc_nr_info, ptr %96, i32 0, i32 6
  store i16 %95, ptr %97, align 2
  br label %123

98:                                               ; preds = %52
  call void @llvm.lifetime.start.p0(i64 8, ptr %15) #12
  call void @llvm.lifetime.start.p0(i64 8, ptr %16) #12
  %99 = load ptr, ptr %7, align 8
  %100 = getelementptr inbounds nuw %struct._packet_info, ptr %99, i32 0, i32 1
  %101 = load ptr, ptr %100, align 8
  call void @col_set_str(ptr noundef %101, i32 noundef 35, ptr noundef @.str.153)
  %102 = load ptr, ptr %7, align 8
  %103 = getelementptr inbounds nuw %struct._packet_info, ptr %102, i32 0, i32 1
  %104 = load ptr, ptr %103, align 8
  call void @col_clear(ptr noundef %104, i32 noundef 25)
  %105 = load ptr, ptr %8, align 8
  %106 = load i32, ptr @proto_rlc_nr, align 4
  %107 = load ptr, ptr %6, align 8
  %108 = load i32, ptr %10, align 4
  %109 = load ptr, ptr %6, align 8
  %110 = call i32 @tvb_reported_length(ptr noundef %109)
  %111 = call ptr @proto_tree_add_item(ptr noundef %105, i32 noundef %106, ptr noundef %107, i32 noundef %108, i32 noundef %110, i32 noundef 0)
  store ptr %111, ptr %15, align 8
  %112 = load ptr, ptr %15, align 8
  %113 = load i32, ptr @ett_rlc_nr, align 4
  %114 = call ptr @proto_item_add_subtree(ptr noundef %112, i32 noundef %113)
  store ptr %114, ptr %16, align 8
  %115 = load ptr, ptr %16, align 8
  %116 = load ptr, ptr %7, align 8
  %117 = load ptr, ptr %6, align 8
  %118 = load i32, ptr %10, align 4
  %119 = sub i32 %118, 1
  %120 = call ptr @proto_tree_add_expert(ptr noundef %115, ptr noundef %116, ptr noundef @ei_rlc_nr_unknown_udp_framing_tag, ptr noundef %117, i32 noundef %119, i32 noundef 1)
  call void @llvm.lifetime.end.p0(i64 8, ptr %16) #12
  call void @llvm.lifetime.end.p0(i64 8, ptr %15) #12
  %121 = call ptr @wmem_file_scope()
  %122 = load ptr, ptr %11, align 8
  call void @wmem_free(ptr noundef %121, ptr noundef %122)
  store i1 true, ptr %5, align 1
  store i32 1, ptr %14, align 4
  br label %148

123:                                              ; preds = %91, %83, %75, %67, %59
  br label %124

124:                                              ; preds = %123
  %125 = load i8, ptr %13, align 1
  %126 = zext i8 %125 to i32
  %127 = icmp ne i32 %126, 1
  br i1 %127, label %52, label %128, !llvm.loop !8

128:                                              ; preds = %124
  %129 = call ptr @wmem_file_scope()
  %130 = load ptr, ptr %7, align 8
  %131 = load i32, ptr @proto_rlc_nr, align 4
  %132 = load ptr, ptr %11, align 8
  call void @p_add_proto_data(ptr noundef %129, ptr noundef %130, i32 noundef %131, i32 noundef 0, ptr noundef %132)
  br label %141

133:                                              ; preds = %28
  %134 = load ptr, ptr %6, align 8
  %135 = call i32 @tvb_reported_length(ptr noundef %134)
  %136 = load ptr, ptr %11, align 8
  %137 = getelementptr inbounds nuw %struct.rlc_nr_info, ptr %136, i32 0, i32 6
  %138 = load i16, ptr %137, align 2
  %139 = zext i16 %138 to i32
  %140 = sub i32 %135, %139
  store i32 %140, ptr %10, align 4
  br label %141

141:                                              ; preds = %133, %128
  %142 = load ptr, ptr %6, align 8
  %143 = load i32, ptr %10, align 4
  %144 = call ptr @tvb_new_subset_remaining(ptr noundef %142, i32 noundef %143)
  store ptr %144, ptr %12, align 8
  %145 = load ptr, ptr %12, align 8
  %146 = load ptr, ptr %7, align 8
  %147 = load ptr, ptr %8, align 8
  call void @dissect_rlc_nr_common(ptr noundef %145, ptr noundef %146, ptr noundef %147, i1 noundef zeroext true)
  store i1 true, ptr %5, align 1
  store i32 1, ptr %14, align 4
  br label %148

148:                                              ; preds = %141, %98, %27, %21
  call void @llvm.lifetime.end.p0(i64 1, ptr %13) #12
  call void @llvm.lifetime.end.p0(i64 8, ptr %12) #12
  call void @llvm.lifetime.end.p0(i64 8, ptr %11) #12
  call void @llvm.lifetime.end.p0(i64 4, ptr %10) #12
  %149 = load i1, ptr %5, align 1
  ret i1 %149
}