; Function Attrs: null_pointer_is_valid sspstrong uwtable
define internal noundef zeroext i1 @dissect_rlc_nr_heur(ptr noundef %0, ptr noundef %1, ptr noundef %2, ptr readnone captures(none) %3) #0 {
  %5 = tail call i32 @tvb_captured_length_remaining(ptr noundef %0, i32 noundef 0)
  %6 = icmp slt i32 %5, 10
  br i1 %6, label %62, label %7

7:                                                ; preds = %4
  %8 = tail call i32 @tvb_strneql(ptr noundef %0, i32 noundef 0, ptr noundef nonnull @.str.154, i64 noundef 6)
  %.not = icmp eq i32 %8, 0
  br i1 %.not, label %9, label %62

9:                                                ; preds = %7
  %10 = tail call ptr @wmem_file_scope()
  %11 = load i32, ptr @proto_rlc_nr, align 4
  %12 = tail call ptr @p_get_proto_data(ptr noundef %10, ptr noundef %1, i32 noundef %11, i32 noundef 0)
  %13 = icmp eq ptr %12, null
  br i1 %13, label %14, label %54

14:                                               ; preds = %9
  %15 = tail call ptr @wmem_file_scope()
  %16 = tail call noalias dereferenceable_or_null(10) ptr @wmem_alloc0(ptr noundef %15, i64 noundef 10) #11
  %17 = tail call zeroext i8 @tvb_get_uint8(ptr noundef %0, i32 noundef 6)
  store i8 %17, ptr %16, align 2
  %18 = tail call zeroext i8 @tvb_get_uint8(ptr noundef %0, i32 noundef 7)
  %19 = getelementptr inbounds nuw i8, ptr %16, i64 2
  store i8 %18, ptr %19, align 2
  %20 = getelementptr inbounds nuw i8, ptr %16, i64 4
  %21 = getelementptr inbounds nuw i8, ptr %16, i64 3
  %22 = getelementptr inbounds nuw i8, ptr %16, i64 6
  %23 = getelementptr inbounds nuw i8, ptr %16, i64 1
  br label %24

24:                                               ; preds = %46, %14
  %.057 = phi i32 [ 8, %14 ], [ %47, %46 ]
  %25 = add i32 %.057, 1
  %26 = tail call zeroext i8 @tvb_get_uint8(ptr noundef %0, i32 noundef %.057)
  switch i8 %26, label %35 [
    i8 2, label %27
    i8 3, label %29
    i8 4, label %31
    i8 5, label %33
    i8 1, label %48
  ]

27:                                               ; preds = %24
  %28 = tail call zeroext i8 @tvb_get_uint8(ptr noundef %0, i32 noundef %25)
  store i8 %28, ptr %23, align 1
  br label %46

29:                                               ; preds = %24
  %30 = tail call zeroext i16 @tvb_get_ntohs(ptr noundef %0, i32 noundef %25)
  store i16 %30, ptr %22, align 2
  br label %46

31:                                               ; preds = %24
  %32 = tail call zeroext i8 @tvb_get_uint8(ptr noundef %0, i32 noundef %25)
  store i8 %32, ptr %21, align 1
  br label %46

33:                                               ; preds = %24
  %34 = tail call zeroext i8 @tvb_get_uint8(ptr noundef %0, i32 noundef %25)
  store i8 %34, ptr %20, align 2
  br label %46

35:                                               ; preds = %24
  %36 = getelementptr inbounds nuw i8, ptr %1, i64 8
  %37 = load ptr, ptr %36, align 8
  tail call void @col_set_str(ptr noundef %37, i32 noundef 35, ptr noundef nonnull @.str.153)
  %38 = load ptr, ptr %36, align 8
  tail call void @col_clear(ptr noundef %38, i32 noundef 25)
  %39 = load i32, ptr @proto_rlc_nr, align 4
  %40 = tail call i32 @tvb_reported_length(ptr noundef %0)
  %41 = tail call ptr @proto_tree_add_item(ptr noundef %2, i32 noundef %39, ptr noundef %0, i32 noundef %25, i32 noundef %40, i32 noundef 0)
  %42 = load i32, ptr @ett_rlc_nr, align 4
  %43 = tail call ptr @proto_item_add_subtree(ptr noundef %41, i32 noundef %42)
  %44 = tail call ptr @proto_tree_add_expert(ptr noundef %43, ptr noundef %1, ptr noundef nonnull @ei_rlc_nr_unknown_udp_framing_tag, ptr noundef %0, i32 noundef %.057, i32 noundef 1)
  %45 = tail call ptr @wmem_file_scope()
  tail call void @wmem_free(ptr noundef %45, ptr noundef %16)
  br label %62

46:                                               ; preds = %27, %29, %31, %33
  %.sink = phi i32 [ 2, %27 ], [ 3, %29 ], [ 2, %31 ], [ 2, %33 ]
  %47 = add i32 %.057, %.sink
  br label %24, !llvm.loop !8

48:                                               ; preds = %24
  %49 = tail call i32 @tvb_reported_length_remaining(ptr noundef %0, i32 noundef %25)
  %50 = trunc i32 %49 to i16
  %51 = getelementptr inbounds nuw i8, ptr %16, i64 8
  store i16 %50, ptr %51, align 2
  %52 = tail call ptr @wmem_file_scope()
  %53 = load i32, ptr @proto_rlc_nr, align 4
  tail call void @p_add_proto_data(ptr noundef %52, ptr noundef %1, i32 noundef %53, i32 noundef 0, ptr noundef %16)
  br label %60

54:                                               ; preds = %9
  %55 = tail call i32 @tvb_reported_length(ptr noundef %0)
  %56 = getelementptr inbounds nuw i8, ptr %12, i64 8
  %57 = load i16, ptr %56, align 2
  %58 = zext i16 %57 to i32
  %59 = sub i32 %55, %58
  br label %60

60:                                               ; preds = %54, %48
  %.2 = phi i32 [ %25, %48 ], [ %59, %54 ]
  %61 = tail call ptr @tvb_new_subset_remaining(ptr noundef %0, i32 noundef %.2)
  tail call fastcc void @dissect_rlc_nr_common(ptr noundef %61, ptr noundef %1, ptr noundef %2, i1 noundef zeroext true)
  br label %62

62:                                               ; preds = %7, %4, %60, %35
  %.0 = phi i1 [ true, %35 ], [ true, %60 ], [ false, %4 ], [ false, %7 ]
  ret i1 %.0
}